; Function Attrs: nounwind uwtable
define range(i32 -6, 1) i32 @inflateInit_(ptr noundef %0, ptr noundef readonly %1, i32 noundef %2) local_unnamed_addr #2 {
  %4 = icmp eq ptr %1, null
  br i1 %4, label %inflateInit2_.exit, label %5

5:                                                ; preds = %3
  %6 = load i8, ptr %1, align 1, !tbaa !37
  %7 = icmp ne i8 %6, 49
  %8 = icmp ne i32 %2, 112
  %or.cond.i = or i1 %8, %7
  br i1 %or.cond.i, label %inflateInit2_.exit, label %9

9:                                                ; preds = %5
  %10 = icmp eq ptr %0, null
  br i1 %10, label %inflateInit2_.exit, label %11

11:                                               ; preds = %9
  %12 = getelementptr inbounds nuw i8, ptr %0, i64 48
  store ptr null, ptr %12, align 8, !tbaa !38
  %13 = getelementptr inbounds nuw i8, ptr %0, i64 64
  %14 = load ptr, ptr %13, align 8, !tbaa !39
  %15 = icmp eq ptr %14, null
  br i1 %15, label %16, label %18

16:                                               ; preds = %11
  store ptr @zcalloc, ptr %13, align 8, !tbaa !39
  %17 = getelementptr inbounds nuw i8, ptr %0, i64 80
  store ptr null, ptr %17, align 8, !tbaa !36
  br label %18

18:                                               ; preds = %16, %11
  %19 = phi ptr [ @zcalloc, %16 ], [ %14, %11 ]
  %20 = getelementptr inbounds nuw i8, ptr %0, i64 72
  %21 = load ptr, ptr %20, align 8, !tbaa !35
  %22 = icmp eq ptr %21, null
  br i1 %22, label %23, label %24

23:                                               ; preds = %18
  store ptr @zcfree, ptr %20, align 8, !tbaa !35
  br label %24

24:                                               ; preds = %23, %18
  %25 = getelementptr inbounds nuw i8, ptr %0, i64 80
  %26 = load ptr, ptr %25, align 8, !tbaa !36
  %27 = tail call ptr %19(ptr noundef %26, i32 noundef 1, i32 noundef 7152) #10
  %28 = icmp eq ptr %27, null
  br i1 %28, label %inflateInit2_.exit, label %29

29:                                               ; preds = %24
  %30 = getelementptr inbounds nuw i8, ptr %0, i64 56
  store ptr %27, ptr %30, align 8, !tbaa !3
  %31 = getelementptr inbounds nuw i8, ptr %27, i64 64
  store ptr null, ptr %31, align 8, !tbaa !32
  %32 = getelementptr inbounds nuw i8, ptr %27, i64 8
  store i32 1, ptr %32, align 8, !tbaa !34
  %33 = getelementptr inbounds nuw i8, ptr %27, i64 48
  store i32 15, ptr %33, align 8, !tbaa !33
  %34 = getelementptr inbounds nuw i8, ptr %27, i64 32
  store i64 0, ptr %34, align 8, !tbaa !12
  %35 = getelementptr inbounds nuw i8, ptr %0, i64 40
  %36 = getelementptr inbounds nuw i8, ptr %0, i64 16
  store i64 0, ptr %36, align 8, !tbaa !15
  %37 = getelementptr inbounds nuw i8, ptr %0, i64 96
  tail call void @llvm.memset.p0.i64(ptr noundef nonnull align 8 dereferenceable(16) %35, i8 0, i64 16, i1 false)
  store i64 1, ptr %37, align 8, !tbaa !16
  store i32 0, ptr %27, align 8, !tbaa !17
  %38 = getelementptr inbounds nuw i8, ptr %27, i64 4
  store i32 0, ptr %38, align 4, !tbaa !18
  %39 = getelementptr inbounds nuw i8, ptr %27, i64 12
  store i32 0, ptr %39, align 4, !tbaa !19
  %40 = getelementptr inbounds nuw i8, ptr %27, i64 20
  store i32 32768, ptr %40, align 4, !tbaa !20
  %41 = getelementptr inbounds nuw i8, ptr %27, i64 40
  store ptr null, ptr %41, align 8, !tbaa !21
  %42 = getelementptr inbounds nuw i8, ptr %27, i64 52
  store i32 0, ptr %42, align 4, !tbaa !22
  %43 = getelementptr inbounds nuw i8, ptr %27, i64 56
  store i32 0, ptr %43, align 8, !tbaa !23
  %44 = getelementptr inbounds nuw i8, ptr %27, i64 60
  store i32 0, ptr %44, align 4, !tbaa !24
  %45 = getelementptr inbounds nuw i8, ptr %27, i64 72
  store i64 0, ptr %45, align 8, !tbaa !25
  %46 = getelementptr inbounds nuw i8, ptr %27, i64 80
  store i32 0, ptr %46, align 8, !tbaa !26
  %47 = getelementptr inbounds nuw i8, ptr %27, i64 1360
  %48 = getelementptr inbounds nuw i8, ptr %27, i64 136
  store ptr %47, ptr %48, align 8, !tbaa !27
  %49 = getelementptr inbounds nuw i8, ptr %27, i64 104
  store ptr %47, ptr %49, align 8, !tbaa !28
  %50 = getelementptr inbounds nuw i8, ptr %27, i64 96
  store ptr %47, ptr %50, align 8, !tbaa !29
  %51 = getelementptr inbounds nuw i8, ptr %27, i64 7136
  store i32 1, ptr %51, align 8, !tbaa !30
  %52 = getelementptr inbounds nuw i8, ptr %27, i64 7140
  store i32 -1, ptr %52, align 4, !tbaa !31
  br label %inflateInit2_.exit

inflateInit2_.exit:                               ; preds = %3, %5, %9, %24, %29
  %.0.i = phi i32 [ -6, %5 ], [ -6, %3 ], [ -2, %9 ], [ -4, %24 ], [ 0, %29 ]
  ret i32 %.0.i
}